; Function Attrs: mustprogress uwtable
define noundef ptr @Z3_get_global_param_descrs(ptr noundef %c) local_unnamed_addr #3 personality ptr @__gxx_personality_v0 {
entry:
  %0 = atomicrmw xchg ptr @g_z3_log_enabled, i8 0 seq_cst, align 1
  %1 = and i8 %0, 1
  %tobool.i.not = icmp eq i8 %1, 0
  br i1 %tobool.i.not, label %if.end, label %if.then

if.then:                                          ; preds = %entry
  invoke void @_Z30log_Z3_get_global_param_descrsP11_Z3_context(ptr noundef %c)
          to label %if.end unwind label %lpad1.thread

lpad1.thread:                                     ; preds = %if.then18, %if.then
  %lpad.thr_comm = landingpad { ptr, i32 }
          cleanup
          catch ptr @_ZTI12z3_exception
  %2 = extractvalue { ptr, i32 } %lpad.thr_comm, 1
  br label %if.then.i

lpad1:                                            ; preds = %.noexc, %invoke.cont4, %invoke.cont11, %invoke.cont8, %if.end
  %lpad.thr_comm.split-lp = landingpad { ptr, i32 }
          cleanup
          catch ptr @_ZTI12z3_exception
  %3 = extractvalue { ptr, i32 } %lpad.thr_comm.split-lp, 1
  br i1 %tobool.i.not, label %_ZN10z3_log_ctxD2Ev.exit, label %if.then.i

if.then.i:                                        ; preds = %lpad1.thread, %lpad1
  %4 = phi i32 [ %2, %lpad1.thread ], [ %3, %lpad1 ]
  %lpad.phi18 = phi { ptr, i32 } [ %lpad.thr_comm, %lpad1.thread ], [ %lpad.thr_comm.split-lp, %lpad1 ]
  store atomic i8 1, ptr @g_z3_log_enabled seq_cst, align 1
  br label %_ZN10z3_log_ctxD2Ev.exit

_ZN10z3_log_ctxD2Ev.exit:                         ; preds = %lpad1, %if.then.i
  %5 = phi i32 [ %3, %lpad1 ], [ %4, %if.then.i ]
  %lpad.phi19 = phi { ptr, i32 } [ %lpad.thr_comm.split-lp, %lpad1 ], [ %lpad.phi18, %if.then.i ]
  %6 = tail call i32 @llvm.eh.typeid.for(ptr nonnull @_ZTI12z3_exception) #10
  %matches = icmp eq i32 %5, %6
  br i1 %matches, label %catch, label %eh.resume

catch:                                            ; preds = %_ZN10z3_log_ctxD2Ev.exit
  %7 = extractvalue { ptr, i32 } %lpad.phi19, 0
  %8 = tail call ptr @__cxa_begin_catch(ptr %7) #10
  invoke void @_ZN3api7context16handle_exceptionER12z3_exception(ptr noundef nonnull align 8 dereferenceable(3048) %c, ptr noundef nonnull align 8 dereferenceable(8) %8)
          to label %invoke.cont24 unwind label %lpad21

invoke.cont24:                                    ; preds = %catch
  tail call void @__cxa_end_catch()
  br label %return

if.end:                                           ; preds = %if.then, %entry
  %call5 = invoke noalias noundef ptr @_ZN6memory8allocateEm(i64 noundef 32)
          to label %invoke.cont4 unwind label %lpad1

invoke.cont4:                                     ; preds = %if.end
  invoke void @_ZN3api6objectC2ERNS_7contextE(ptr noundef nonnull align 8 dereferenceable(24) %call5, ptr noundef nonnull align 8 dereferenceable(3048) %c)
          to label %.noexc unwind label %lpad1

.noexc:                                           ; preds = %invoke.cont4
  store ptr getelementptr inbounds ({ [4 x ptr] }, ptr @_ZTV19Z3_param_descrs_ref, i64 0, i32 0, i64 2), ptr %call5, align 8
  %m_descrs.i = getelementptr inbounds i8, ptr %call5, i64 24
  invoke void @_ZN12param_descrsC1Ev(ptr noundef nonnull align 8 dereferenceable(8) %m_descrs.i)
          to label %invoke.cont8 unwind label %lpad1

invoke.cont8:                                     ; preds = %.noexc
  invoke void @_ZN3api7context11save_objectEPNS_6objectE(ptr noundef nonnull align 8 dereferenceable(3048) %c, ptr noundef nonnull %call5)
          to label %invoke.cont11 unwind label %lpad1

invoke.cont11:                                    ; preds = %invoke.cont8
  %call13 = invoke noundef nonnull align 8 dereferenceable(8) ptr @_ZN7gparams23get_global_param_descrsEv()
          to label %invoke.cont12 unwind label %lpad1

invoke.cont12:                                    ; preds = %invoke.cont11
  %9 = load i64, ptr %call13, align 8
  store i64 %9, ptr %m_descrs.i, align 8
  br i1 %tobool.i.not, label %return, label %if.then18

if.then18:                                        ; preds = %invoke.cont12
  invoke void @_Z4SetRPv(ptr noundef nonnull %call5)
          to label %if.then.i11 unwind label %lpad1.thread

if.then.i11:                                      ; preds = %if.then18
  store atomic i8 1, ptr @g_z3_log_enabled seq_cst, align 1
  br label %return

lpad21:                                           ; preds = %catch
  %10 = landingpad { ptr, i32 }
          cleanup
  invoke void @__cxa_end_catch()
          to label %eh.resume unwind label %terminate.lpad

return:                                           ; preds = %invoke.cont12, %if.then.i11, %invoke.cont24
  %retval.0 = phi ptr [ null, %invoke.cont24 ], [ %call5, %if.then.i11 ], [ %call5, %invoke.cont12 ]
  ret ptr %retval.0

eh.resume:                                        ; preds = %lpad21, %_ZN10z3_log_ctxD2Ev.exit
  %lpad.val29.merged = phi { ptr, i32 } [ %10, %lpad21 ], [ %lpad.phi19, %_ZN10z3_log_ctxD2Ev.exit ]
  resume { ptr, i32 } %lpad.val29.merged

terminate.lpad:                                   ; preds = %lpad21
  %11 = landingpad { ptr, i32 }
          catch ptr null
  %12 = extractvalue { ptr, i32 } %11, 0
  tail call void @__clang_call_terminate(ptr %12) #11
  unreachable
}